; Function Attrs: mustprogress uwtable
define hidden noundef zeroext i1 @_ZN2cv10PngDecoder17processing_finishEv(ptr noundef nonnull align 8 dereferenceable(3976) %0) local_unnamed_addr #5 align 2 {
  %2 = getelementptr inbounds nuw i8, ptr %0, i64 368
  %3 = load ptr, ptr %2, align 8, !tbaa !100
  %.not = icmp eq ptr %3, null
  br i1 %.not, label %14, label %4

4:                                                ; preds = %1
  %5 = call ptr @png_set_longjmp_fn(ptr noundef nonnull %3, ptr noundef nonnull @longjmp, i64 noundef 200)
  %6 = call i32 @_setjmp(ptr noundef %5) #37
  %.not3 = icmp eq i32 %6, 0
  br i1 %.not3, label %7, label %14

7:                                                ; preds = %4
  %8 = load ptr, ptr %2, align 8, !tbaa !100
  %9 = getelementptr inbounds nuw i8, ptr %0, i64 376
  %10 = load ptr, ptr %9, align 8, !tbaa !101
  call void @png_process_data(ptr noundef %8, ptr noundef %10, ptr noundef nonnull @_ZZN2cv10PngDecoder17processing_finishEvE6footer, i64 noundef 12)
  %11 = load ptr, ptr %2, align 8, !tbaa !100
  %.not.i = icmp eq ptr %11, null
  br i1 %.not.i, label %_ZN2cv10PngDecoder11ClearPngPtrEv.exit, label %12

12:                                               ; preds = %7
  %13 = getelementptr inbounds nuw i8, ptr %0, i64 384
  call void @png_destroy_read_struct(ptr noundef nonnull %2, ptr noundef nonnull %9, ptr noundef nonnull %13)
  br label %_ZN2cv10PngDecoder11ClearPngPtrEv.exit

_ZN2cv10PngDecoder11ClearPngPtrEv.exit:           ; preds = %7, %12
  call void @llvm.memset.p0.i64(ptr noundef nonnull align 8 dereferenceable(24) %2, i8 0, i64 24, i1 false)
  br label %14

14:                                               ; preds = %4, %1, %_ZN2cv10PngDecoder11ClearPngPtrEv.exit
  %.0 = phi i1 [ true, %_ZN2cv10PngDecoder11ClearPngPtrEv.exit ], [ false, %1 ], [ false, %4 ]
  ret i1 %.0
}